; ModuleID = '58/219.c'
source_filename = "58/219.c"
target datalayout = "e-m:e-p270:32:32-p271:32:32-p272:64:64-i64:64-f80:128-n8:16:32:64-S128"
target triple = "x86_64-pc-linux-gnu"

@.str = private unnamed_addr constant [3 x i8] c"%d\00", align 1
@.str.1 = private unnamed_addr constant [3 x i8] c"1\0A\00", align 1
@.str.2 = private unnamed_addr constant [3 x i8] c"0\0A\00", align 1

; Function Attrs: noinline nounwind uwtable
define dso_local void @main() #0 {
  %1 = alloca i32, align 4
  %2 = alloca i32, align 4
  %3 = alloca i32, align 4
  %4 = alloca i32, align 4
  %5 = alloca [80 x i8], align 16
  %6 = alloca [80 x i8], align 16
  store i32 0, i32* %3, align 4
  %7 = call i32 (i8*, ...) @__isoc99_scanf(i8* getelementptr inbounds ([3 x i8], [3 x i8]* @.str, i64 0, i64 0), i32* %1)
  %8 = getelementptr inbounds [80 x i8], [80 x i8]* %5, i64 0, i64 0
  %9 = call i32 (i8*, ...) bitcast (i32 (...)* @gets to i32 (i8*, ...)*)(i8* %8)
  store i32 0, i32* %2, align 4
  br label %10

10:                                               ; preds = %122, %0
  %11 = load i32, i32* %2, align 4
  %12 = load i32, i32* %1, align 4
  %13 = icmp slt i32 %11, %12
  br i1 %13, label %14, label %125

14:                                               ; preds = %10
  %15 = getelementptr inbounds [80 x i8], [80 x i8]* %6, i64 0, i64 0
  %16 = call i32 (i8*, ...) bitcast (i32 (...)* @gets to i32 (i8*, ...)*)(i8* %15)
  %17 = getelementptr inbounds [80 x i8], [80 x i8]* %6, i64 0, i64 0
  %18 = load i8, i8* %17, align 16
  %19 = sext i8 %18 to i32
  %20 = icmp eq i32 %19, 95
  br i1 %20, label %41, label %21

21:                                               ; preds = %14
  %22 = getelementptr inbounds [80 x i8], [80 x i8]* %6, i64 0, i64 0
  %23 = load i8, i8* %22, align 16
  %24 = sext i8 %23 to i32
  %25 = icmp sle i32 %24, 122
  br i1 %25, label %26, label %31

26:                                               ; preds = %21
  %27 = getelementptr inbounds [80 x i8], [80 x i8]* %6, i64 0, i64 0
  %28 = load i8, i8* %27, align 16
  %29 = sext i8 %28 to i32
  %30 = icmp sge i32 %29, 97
  br i1 %30, label %41, label %31

31:                                               ; preds = %26, %21
  %32 = getelementptr inbounds [80 x i8], [80 x i8]* %6, i64 0, i64 0
  %33 = load i8, i8* %32, align 16
  %34 = sext i8 %33 to i32
  %35 = icmp sle i32 %34, 90
  br i1 %35, label %36, label %42

36:                                               ; preds = %31
  %37 = getelementptr inbounds [80 x i8], [80 x i8]* %6, i64 0, i64 0
  %38 = load i8, i8* %37, align 16
  %39 = sext i8 %38 to i32
  %40 = icmp sge i32 %39, 65
  br i1 %40, label %41, label %42

41:                                               ; preds = %36, %26, %14
  br label %45

42:                                               ; preds = %36, %31
  %43 = load i32, i32* %3, align 4
  %44 = add nsw i32 %43, 1
  store i32 %44, i32* %3, align 4
  br label %45

45:                                               ; preds = %42, %41
  %46 = getelementptr inbounds [80 x i8], [80 x i8]* %6, i64 0, i64 0
  %47 = call i64 @strlen(i8* %46) #3
  %48 = icmp ugt i64 %47, 1
  br i1 %48, label %49, label %114

49:                                               ; preds = %45
  store i32 1, i32* %4, align 4
  br label %50

50:                                               ; preds = %110, %49
  %51 = load i32, i32* %4, align 4
  %52 = sext i32 %51 to i64
  %53 = getelementptr inbounds [80 x i8], [80 x i8]* %6, i64 0, i64 0
  %54 = call i64 @strlen(i8* %53) #3
  %55 = icmp ult i64 %52, %54
  br i1 %55, label %56, label %113

56:                                               ; preds = %50
  %57 = load i32, i32* %4, align 4
  %58 = sext i32 %57 to i64
  %59 = getelementptr inbounds [80 x i8], [80 x i8]* %6, i64 0, i64 %58
  %60 = load i8, i8* %59, align 1
  %61 = sext i8 %60 to i32
  %62 = icmp eq i32 %61, 95
  br i1 %62, label %105, label %63

63:                                               ; preds = %56
  %64 = load i32, i32* %4, align 4
  %65 = sext i32 %64 to i64
  %66 = getelementptr inbounds [80 x i8], [80 x i8]* %6, i64 0, i64 %65
  %67 = load i8, i8* %66, align 1
  %68 = sext i8 %67 to i32
  %69 = icmp sle i32 %68, 57
  br i1 %69, label %70, label %77

70:                                               ; preds = %63
  %71 = load i32, i32* %4, align 4
  %72 = sext i32 %71 to i64
  %73 = getelementptr inbounds [80 x i8], [80 x i8]* %6, i64 0, i64 %72
  %74 = load i8, i8* %73, align 1
  %75 = sext i8 %74 to i32
  %76 = icmp sge i32 %75, 48
  br i1 %76, label %105, label %77

77:                                               ; preds = %70, %63
  %78 = load i32, i32* %4, align 4
  %79 = sext i32 %78 to i64
  %80 = getelementptr inbounds [80 x i8], [80 x i8]* %6, i64 0, i64 %79
  %81 = load i8, i8* %80, align 1
  %82 = sext i8 %81 to i32
  %83 = icmp sle i32 %82, 122
  br i1 %83, label %84, label %91

84:                                               ; preds = %77
  %85 = load i32, i32* %4, align 4
  %86 = sext i32 %85 to i64
  %87 = getelementptr inbounds [80 x i8], [80 x i8]* %6, i64 0, i64 %86
  %88 = load i8, i8* %87, align 1
  %89 = sext i8 %88 to i32
  %90 = icmp sge i32 %89, 97
  br i1 %90, label %105, label %91

91:                                               ; preds = %84, %77
  %92 = load i32, i32* %4, align 4
  %93 = sext i32 %92 to i64
  %94 = getelementptr inbounds [80 x i8], [80 x i8]* %6, i64 0, i64 %93
  %95 = load i8, i8* %94, align 1
  %96 = sext i8 %95 to i32
  %97 = icmp sle i32 %96, 90
  br i1 %97, label %98, label %106

98:                                               ; preds = %91
  %99 = load i32, i32* %4, align 4
  %100 = sext i32 %99 to i64
  %101 = getelementptr inbounds [80 x i8], [80 x i8]* %6, i64 0, i64 %100
  %102 = load i8, i8* %101, align 1
  %103 = sext i8 %102 to i32
  %104 = icmp sge i32 %103, 65
  br i1 %104, label %105, label %106

105:                                              ; preds = %98, %84, %70, %56
  br label %109

106:                                              ; preds = %98, %91
  %107 = load i32, i32* %3, align 4
  %108 = add nsw i32 %107, 1
  store i32 %108, i32* %3, align 4
  br label %109

109:                                              ; preds = %106, %105
  br label %110

110:                                              ; preds = %109
  %111 = load i32, i32* %4, align 4
  %112 = add nsw i32 %111, 1
  store i32 %112, i32* %4, align 4
  br label %50

113:                                              ; preds = %50
  br label %114

114:                                              ; preds = %113, %45
  %115 = load i32, i32* %3, align 4
  %116 = icmp eq i32 %115, 0
  br i1 %116, label %117, label %119

117:                                              ; preds = %114
  %118 = call i32 (i8*, ...) @printf(i8* getelementptr inbounds ([3 x i8], [3 x i8]* @.str.1, i64 0, i64 0))
  br label %121

119:                                              ; preds = %114
  %120 = call i32 (i8*, ...) @printf(i8* getelementptr inbounds ([3 x i8], [3 x i8]* @.str.2, i64 0, i64 0))
  br label %121

121:                                              ; preds = %119, %117
  store i32 0, i32* %3, align 4
  br label %122

122:                                              ; preds = %121
  %123 = load i32, i32* %2, align 4
  %124 = add nsw i32 %123, 1
  store i32 %124, i32* %2, align 4
  br label %10

125:                                              ; preds = %10
  ret void
}

declare dso_local i32 @__isoc99_scanf(i8*, ...) #1

declare dso_local i32 @gets(...) #1

; Function Attrs: nounwind readonly
declare dso_local i64 @strlen(i8*) #2

declare dso_local i32 @printf(i8*, ...) #1


!llvm.module.flags = !{!0}
!llvm.ident = !{!1}

!0 = !{i32 1, !"wchar_size", i32 4}
!1 = !{!"clang version 10.0.0-4ubuntu1 "}
